target datalayout = "e-m:e-p270:32:32-p271:32:32-p272:64:64-i64:64-i128:128-f80:128-n8:16:32:64-S128"
target triple = "x86_64-pc-linux-gnu"

%struct._lv_matrix_t = type { [3 x [3 x float]] }
%struct.lv_point_precise_t = type { float, float }

; Function Attrs: nounwind uwtable
define <2 x float> @lv_matrix_transform_precise_point(ptr noundef %0, ptr noundef %1) #5 {
  %3 = alloca %struct.lv_point_precise_t, align 4
  %4 = alloca ptr, align 8
  %5 = alloca ptr, align 8
  store ptr %0, ptr %4, align 8, !tbaa !3
  store ptr %1, ptr %5, align 8, !tbaa !3
  %6 = load ptr, ptr %5, align 8, !tbaa !3
  %7 = getelementptr inbounds nuw %struct.lv_point_precise_t, ptr %6, i32 0, i32 0
  %8 = load float, ptr %7, align 4, !tbaa !18
  %9 = load ptr, ptr %4, align 8, !tbaa !3
  %10 = getelementptr inbounds nuw %struct._lv_matrix_t, ptr %9, i32 0, i32 0
  %11 = getelementptr inbounds [3 x [3 x float]], ptr %10, i64 0, i64 0
  %12 = getelementptr inbounds [3 x float], ptr %11, i64 0, i64 0
  %13 = load float, ptr %12, align 4, !tbaa !7
  %14 = load ptr, ptr %5, align 8, !tbaa !3
  %15 = getelementptr inbounds nuw %struct.lv_point_precise_t, ptr %14, i32 0, i32 1
  %16 = load float, ptr %15, align 4, !tbaa !20
  %17 = load ptr, ptr %4, align 8, !tbaa !3
  %18 = getelementptr inbounds nuw %struct._lv_matrix_t, ptr %17, i32 0, i32 0
  %19 = getelementptr inbounds [3 x [3 x float]], ptr %18, i64 0, i64 0
  %20 = getelementptr inbounds [3 x float], ptr %19, i64 0, i64 1
  %21 = load float, ptr %20, align 4, !tbaa !7
  %22 = fmul float %16, %21
  %23 = call float @llvm.fmuladd.f32(float %8, float %13, float %22)
  %24 = load ptr, ptr %4, align 8, !tbaa !3
  %25 = getelementptr inbounds nuw %struct._lv_matrix_t, ptr %24, i32 0, i32 0
  %26 = getelementptr inbounds [3 x [3 x float]], ptr %25, i64 0, i64 0
  %27 = getelementptr inbounds [3 x float], ptr %26, i64 0, i64 2
  %28 = load float, ptr %27, align 4, !tbaa !7
  %29 = fadd float %23, %28
  %30 = call float @llvm.round.f32(float %29)
  %31 = getelementptr inbounds nuw %struct.lv_point_precise_t, ptr %3, i32 0, i32 0
  store float %30, ptr %31, align 4, !tbaa !18
  %32 = load ptr, ptr %5, align 8, !tbaa !3
  %33 = getelementptr inbounds nuw %struct.lv_point_precise_t, ptr %32, i32 0, i32 0
  %34 = load float, ptr %33, align 4, !tbaa !18
  %35 = load ptr, ptr %4, align 8, !tbaa !3
  %36 = getelementptr inbounds nuw %struct._lv_matrix_t, ptr %35, i32 0, i32 0
  %37 = getelementptr inbounds [3 x [3 x float]], ptr %36, i64 0, i64 1
  %38 = getelementptr inbounds [3 x float], ptr %37, i64 0, i64 0
  %39 = load float, ptr %38, align 4, !tbaa !7
  %40 = load ptr, ptr %5, align 8, !tbaa !3
  %41 = getelementptr inbounds nuw %struct.lv_point_precise_t, ptr %40, i32 0, i32 1
  %42 = load float, ptr %41, align 4, !tbaa !20
  %43 = load ptr, ptr %4, align 8, !tbaa !3
  %44 = getelementptr inbounds nuw %struct._lv_matrix_t, ptr %43, i32 0, i32 0
  %45 = getelementptr inbounds [3 x [3 x float]], ptr %44, i64 0, i64 1
  %46 = getelementptr inbounds [3 x float], ptr %45, i64 0, i64 1
  %47 = load float, ptr %46, align 4, !tbaa !7
  %48 = fmul float %42, %47
  %49 = call float @llvm.fmuladd.f32(float %34, float %39, float %48)
  %50 = load ptr, ptr %4, align 8, !tbaa !3
  %51 = getelementptr inbounds nuw %struct._lv_matrix_t, ptr %50, i32 0, i32 0
  %52 = getelementptr inbounds [3 x [3 x float]], ptr %51, i64 0, i64 1
  %53 = getelementptr inbounds [3 x float], ptr %52, i64 0, i64 2
  %54 = load float, ptr %53, align 4, !tbaa !7
  %55 = fadd float %49, %54
  %56 = call float @llvm.round.f32(float %55)
  %57 = getelementptr inbounds nuw %struct.lv_point_precise_t, ptr %3, i32 0, i32 1
  store float %56, ptr %57, align 4, !tbaa !20
  %58 = load <2 x float>, ptr %3, align 4
  ret <2 x float> %58
}