; Function Attrs: mustprogress nofree norecurse nosync nounwind willreturn memory(argmem: read) uwtable
define <2 x float> @lv_matrix_transform_precise_point(ptr nocapture noundef readonly %0, ptr nocapture noundef readonly %1) local_unnamed_addr #8 {
  %3 = load float, ptr %1, align 4, !tbaa !12
  %4 = load float, ptr %0, align 4, !tbaa !3
  %5 = getelementptr inbounds nuw i8, ptr %1, i64 4
  %6 = load float, ptr %5, align 4, !tbaa !14
  %7 = getelementptr inbounds i8, ptr %0, i64 4
  %8 = load float, ptr %7, align 4, !tbaa !3
  %9 = fmul float %6, %8
  %10 = tail call float @llvm.fmuladd.f32(float %3, float %4, float %9)
  %11 = getelementptr inbounds i8, ptr %0, i64 8
  %12 = load float, ptr %11, align 4, !tbaa !3
  %13 = fadd float %12, %10
  %14 = tail call float @llvm.round.f32(float %13)
  %.sroa.0.0.vec.insert = insertelement <2 x float> poison, float %14, i64 0
  %15 = getelementptr inbounds i8, ptr %0, i64 12
  %16 = load float, ptr %15, align 4, !tbaa !3
  %17 = getelementptr inbounds i8, ptr %0, i64 16
  %18 = load float, ptr %17, align 4, !tbaa !3
  %19 = fmul float %6, %18
  %20 = tail call float @llvm.fmuladd.f32(float %3, float %16, float %19)
  %21 = getelementptr inbounds i8, ptr %0, i64 20
  %22 = load float, ptr %21, align 4, !tbaa !3
  %23 = fadd float %22, %20
  %24 = tail call float @llvm.round.f32(float %23)
  %.sroa.0.4.vec.insert = insertelement <2 x float> %.sroa.0.0.vec.insert, float %24, i64 1
  ret <2 x float> %.sroa.0.4.vec.insert
}